target datalayout = "e-m:e-p270:32:32-p271:32:32-p272:64:64-i64:64-i128:128-f80:128-n8:16:32:64-S128"
target triple = "x86_64-unknown-linux-gnu"

%union.pthread_mutex_t = type { %struct.__pthread_mutex_s }
%struct.__pthread_mutex_s = type { i32, i32, i32, i32, i32, i16, i16, %struct.__pthread_internal_list }
%struct.__pthread_internal_list = type { ptr, ptr }
%"class.std::thread" = type { %"class.std::thread::id" }
%"class.std::thread::id" = type { i64 }
%class.scoped_timer = type { ptr }
%struct.scoped_timer_state = type { %"class.std::thread", %"class.std::timed_mutex", ptr, i32, %"struct.std::atomic", %"class.std::_V2::condition_variable_any" }
%"class.std::timed_mutex" = type { %"class.std::__mutex_base" }
%"class.std::__mutex_base" = type { %union.pthread_mutex_t }
%"struct.std::atomic" = type { i32 }
%"class.std::_V2::condition_variable_any" = type { %"class.std::condition_variable", %"class.std::shared_ptr" }
%"class.std::condition_variable" = type { %"class.std::__condvar" }
%"class.std::__condvar" = type { %union.pthread_cond_t }
%union.pthread_cond_t = type { %struct.__pthread_cond_s }
%struct.__pthread_cond_s = type { %union.__atomic_wide_counter, %union.__atomic_wide_counter, [2 x i32], [2 x i32], i32, i32, [2 x i32] }
%union.__atomic_wide_counter = type { i64 }
%"class.std::shared_ptr" = type { %"class.std::__shared_ptr" }
%"class.std::__shared_ptr" = type { ptr, %"class.std::__shared_count" }
%"class.std::__shared_count" = type { ptr }

; Function Attrs: mustprogress nounwind uwtable
define internal noundef i32 @_ZL18__gthread_active_pv() #4 {
entry:
  ret i32 1
}

; Function Attrs: mustprogress nounwind uwtable
define linkonce_odr hidden void @_ZNSt6atomicI23scoped_timer_work_stateE5storeES0_St12memory_order(ptr noundef nonnull align 4 dereferenceable(4) %this, i32 noundef %__i, i32 noundef %__m) #4 comdat align 2 {
entry:
  %this.addr = alloca ptr, align 8
  %__i.addr = alloca i32, align 4
  %__m.addr = alloca i32, align 4
  store ptr %this, ptr %this.addr, align 8
  store i32 %__i, ptr %__i.addr, align 4
  store i32 %__m, ptr %__m.addr, align 4
  %this1 = load ptr, ptr %this.addr, align 8
  %_M_i = getelementptr inbounds %"struct.std::atomic", ptr %this1, i32 0, i32 0
  %0 = load i32, ptr %__m.addr, align 4
  switch i32 %0, label %monotonic [
    i32 3, label %release
    i32 5, label %seqcst
  ]

monotonic:                                        ; preds = %entry
  %1 = load i32, ptr %__i.addr, align 4
  store atomic i32 %1, ptr %_M_i monotonic, align 4
  br label %atomic.continue

release:                                          ; preds = %entry
  %2 = load i32, ptr %__i.addr, align 4
  store atomic i32 %2, ptr %_M_i release, align 4
  br label %atomic.continue

seqcst:                                           ; preds = %entry
  %3 = load i32, ptr %__i.addr, align 4
  store atomic i32 %3, ptr %_M_i seq_cst, align 4
  br label %atomic.continue

atomic.continue:                                  ; preds = %seqcst, %release, %monotonic
  ret void
}

; Function Attrs: mustprogress uwtable
define internal noundef i32 @_ZL20__gthread_mutex_lockP15pthread_mutex_t(ptr noundef %__mutex) #5 {
entry:
  %retval = alloca i32, align 4
  %__mutex.addr = alloca ptr, align 8
  store ptr %__mutex, ptr %__mutex.addr, align 8
  %call = call noundef i32 @_ZL18__gthread_active_pv()
  %tobool = icmp ne i32 %call, 0
  br i1 %tobool, label %if.then, label %if.else

if.then:                                          ; preds = %entry
  %0 = load ptr, ptr %__mutex.addr, align 8
  %call1 = call i32 @pthread_mutex_lock(ptr noundef %0) #3
  store i32 %call1, ptr %retval, align 4
  br label %return

if.else:                                          ; preds = %entry
  store i32 0, ptr %retval, align 4
  br label %return

return:                                           ; preds = %if.else, %if.then
  %1 = load i32, ptr %retval, align 4
  ret i32 %1
}

; Function Attrs: mustprogress nounwind uwtable
define linkonce_odr hidden noundef i32 @_ZNSt6atomicI23scoped_timer_work_stateEaSES0_(ptr noundef nonnull align 4 dereferenceable(4) %this, i32 noundef %__i) #4 comdat align 2 {
entry:
  %this.addr = alloca ptr, align 8
  %__i.addr = alloca i32, align 4
  store ptr %this, ptr %this.addr, align 8
  store i32 %__i, ptr %__i.addr, align 4
  %this1 = load ptr, ptr %this.addr, align 8
  %0 = load i32, ptr %__i.addr, align 4
  call void @_ZNSt6atomicI23scoped_timer_work_stateE5storeES0_St12memory_order(ptr noundef nonnull align 4 dereferenceable(4) %this1, i32 noundef %0, i32 noundef 5) #3
  %1 = load i32, ptr %__i.addr, align 4
  ret i32 %1
}

; Function Attrs: mustprogress uwtable
define linkonce_odr hidden void @_ZNSt11timed_mutex4lockEv(ptr noundef nonnull align 8 dereferenceable(40) %this) #5 comdat align 2 {
entry:
  %this.addr = alloca ptr, align 8
  %__e = alloca i32, align 4
  store ptr %this, ptr %this.addr, align 8
  %this1 = load ptr, ptr %this.addr, align 8
  %_M_mutex = getelementptr inbounds %"class.std::__mutex_base", ptr %this1, i32 0, i32 0
  %call = call noundef i32 @_ZL20__gthread_mutex_lockP15pthread_mutex_t(ptr noundef %_M_mutex)
  store i32 %call, ptr %__e, align 4
  %0 = load i32, ptr %__e, align 4
  %tobool = icmp ne i32 %0, 0
  br i1 %tobool, label %if.then, label %if.end

if.then:                                          ; preds = %entry
  %1 = load i32, ptr %__e, align 4
  call void @_ZSt20__throw_system_errori(i32 noundef %1) #18
  unreachable

if.end:                                           ; preds = %entry
  ret void
}

; Function Attrs: mustprogress uwtable
define hidden void @_ZN12scoped_timer10init_stateEjP13event_handler(ptr noundef nonnull align 8 dereferenceable(8) %this, i32 noundef %ms, ptr noundef %eh) #5 align 2 {
entry:
  %this.addr = alloca ptr, align 8
  %ms.addr = alloca i32, align 4
  %eh.addr = alloca ptr, align 8
  store ptr %this, ptr %this.addr, align 8
  store i32 %ms, ptr %ms.addr, align 4
  store ptr %eh, ptr %eh.addr, align 8
  %this1 = load ptr, ptr %this.addr, align 8
  %0 = load i32, ptr %ms.addr, align 4
  %s = getelementptr inbounds %class.scoped_timer, ptr %this1, i32 0, i32 0
  %1 = load ptr, ptr %s, align 8
  %ms2 = getelementptr inbounds %struct.scoped_timer_state, ptr %1, i32 0, i32 3
  store i32 %0, ptr %ms2, align 8
  %2 = load ptr, ptr %eh.addr, align 8
  %s3 = getelementptr inbounds %class.scoped_timer, ptr %this1, i32 0, i32 0
  %3 = load ptr, ptr %s3, align 8
  %eh4 = getelementptr inbounds %struct.scoped_timer_state, ptr %3, i32 0, i32 2
  store ptr %2, ptr %eh4, align 8
  %s5 = getelementptr inbounds %class.scoped_timer, ptr %this1, i32 0, i32 0
  %4 = load ptr, ptr %s5, align 8
  %m_mutex = getelementptr inbounds %struct.scoped_timer_state, ptr %4, i32 0, i32 1
  call void @_ZNSt11timed_mutex4lockEv(ptr noundef nonnull align 8 dereferenceable(40) %m_mutex)
  %s6 = getelementptr inbounds %class.scoped_timer, ptr %this1, i32 0, i32 0
  %5 = load ptr, ptr %s6, align 8
  %work = getelementptr inbounds %struct.scoped_timer_state, ptr %5, i32 0, i32 4
  %call = call noundef i32 @_ZNSt6atomicI23scoped_timer_work_stateEaSES0_(ptr noundef nonnull align 4 dereferenceable(4) %work, i32 noundef 1) #3
  ret void
}