; Function Attrs: mustprogress uwtable
define hidden void @_ZN12scoped_timer10init_stateEjP13event_handler(ptr nocapture noundef nonnull readonly align 8 dereferenceable(8) %this, i32 noundef %ms, ptr noundef %eh) local_unnamed_addr #4 align 2 {
entry:
  %0 = load ptr, ptr %this, align 8
  %ms2 = getelementptr inbounds i8, ptr %0, i64 56
  store i32 %ms, ptr %ms2, align 8
  %1 = load ptr, ptr %this, align 8
  %eh4 = getelementptr inbounds i8, ptr %1, i64 48
  store ptr %eh, ptr %eh4, align 8
  %2 = load ptr, ptr %this, align 8
  %m_mutex = getelementptr inbounds i8, ptr %2, i64 8
  %call1.i.i = tail call noundef i32 @pthread_mutex_lock(ptr noundef nonnull %m_mutex) #19
  %tobool.not.i = icmp eq i32 %call1.i.i, 0
  br i1 %tobool.not.i, label %_ZNSt11timed_mutex4lockEv.exit, label %if.then.i

if.then.i:                                        ; preds = %entry
  tail call void @_ZSt20__throw_system_errori(i32 noundef %call1.i.i) #20
  unreachable

_ZNSt11timed_mutex4lockEv.exit:                   ; preds = %entry
  %3 = load ptr, ptr %this, align 8
  %work = getelementptr inbounds i8, ptr %3, i64 60
  store atomic i32 1, ptr %work seq_cst, align 4
  ret void
}